; Function Attrs: mustprogress nofree norecurse nosync nounwind willreturn memory(none) uwtable
define signext range(i8 0, 2) i8 @u_isalnumPOSIX_77(i32 noundef %0) local_unnamed_addr #0 {
  %2 = icmp ult i32 %0, 55296
  br i1 %2, label %3, label %5

3:                                                ; preds = %1
  %4 = lshr i32 %0, 5
  br label %u_isUAlphabetic_77.exit

5:                                                ; preds = %1
  %6 = icmp ult i32 %0, 65536
  br i1 %6, label %7, label %12

7:                                                ; preds = %5
  %8 = icmp samesign ult i32 %0, 56320
  %9 = select i1 %8, i32 320, i32 0
  %10 = lshr i32 %0, 5
  %11 = add nuw nsw i32 %9, %10
  br label %u_isUAlphabetic_77.exit

12:                                               ; preds = %5
  %13 = icmp ugt i32 %0, 1114111
  br i1 %13, label %u_isdigit_77.exit, label %14

14:                                               ; preds = %12
  %15 = lshr i32 %0, 11
  %16 = zext nneg i32 %15 to i64
  %17 = getelementptr inbounds nuw i16, ptr @_ZL22propsVectorsTrie_index, i64 %16
  %18 = getelementptr inbounds nuw i8, ptr %17, i64 4160
  %19 = load i16, ptr %18, align 2, !tbaa !3
  %20 = zext i16 %19 to i32
  %21 = lshr i32 %0, 5
  %22 = and i32 %21, 63
  %23 = add nuw nsw i32 %22, %20
  br label %u_isUAlphabetic_77.exit

u_isUAlphabetic_77.exit:                          ; preds = %3, %7, %14
  %.sink21.i.i = phi i32 [ %11, %7 ], [ %23, %14 ], [ %4, %3 ]
  %24 = zext nneg i32 %.sink21.i.i to i64
  %25 = getelementptr inbounds nuw i16, ptr @_ZL22propsVectorsTrie_index, i64 %24
  %26 = load i16, ptr %25, align 2, !tbaa !3
  %27 = zext i16 %26 to i32
  %28 = shl nuw nsw i32 %27, 2
  %29 = and i32 %0, 31
  %30 = add nuw nsw i32 %28, %29
  %31 = zext nneg i32 %30 to i64
  %32 = getelementptr inbounds nuw i16, ptr @_ZL22propsVectorsTrie_index, i64 %31
  %33 = load i16, ptr %32, align 2, !tbaa !3
  %34 = zext i16 %33 to i64
  %35 = add nuw nsw i64 %34, 1
  %36 = getelementptr inbounds nuw [6426 x i32], ptr @_ZL12propsVectors, i64 0, i64 %35
  %37 = load i32, ptr %36, align 4, !tbaa !11
  %38 = and i32 %37, 256
  %.not = icmp eq i32 %38, 0
  br i1 %.not, label %39, label %72

39:                                               ; preds = %u_isUAlphabetic_77.exit
  br i1 %2, label %40, label %42

40:                                               ; preds = %39
  %41 = lshr i32 %0, 5
  br label %.sink.split.i

42:                                               ; preds = %39
  %43 = icmp samesign ult i32 %0, 65536
  br i1 %43, label %44, label %49

44:                                               ; preds = %42
  %45 = icmp samesign ult i32 %0, 56320
  %46 = select i1 %45, i32 320, i32 0
  %47 = lshr i32 %0, 5
  %48 = add nuw nsw i32 %46, %47
  br label %.sink.split.i

49:                                               ; preds = %42
  %50 = lshr i32 %0, 11
  %51 = zext nneg i32 %50 to i64
  %52 = getelementptr inbounds nuw i16, ptr @_ZL15propsTrie_index, i64 %51
  %53 = getelementptr inbounds nuw i8, ptr %52, i64 4160
  %54 = load i16, ptr %53, align 2, !tbaa !3
  %55 = zext i16 %54 to i32
  %56 = lshr i32 %0, 5
  %57 = and i32 %56, 63
  %58 = add nuw nsw i32 %57, %55
  br label %.sink.split.i

.sink.split.i:                                    ; preds = %49, %44, %40
  %.sink16.i = phi i32 [ %48, %44 ], [ %58, %49 ], [ %41, %40 ]
  %59 = zext nneg i32 %.sink16.i to i64
  %60 = getelementptr inbounds nuw i16, ptr @_ZL15propsTrie_index, i64 %59
  %61 = load i16, ptr %60, align 2, !tbaa !3
  %62 = zext i16 %61 to i32
  %63 = shl nuw nsw i32 %62, 2
  %64 = add nuw nsw i32 %63, %29
  %65 = zext nneg i32 %64 to i64
  br label %u_isdigit_77.exit

u_isdigit_77.exit:                                ; preds = %12, %.sink.split.i
  %66 = phi i64 [ %65, %.sink.split.i ], [ 4876, %12 ]
  %67 = getelementptr inbounds nuw i16, ptr @_ZL15propsTrie_index, i64 %66
  %68 = load i16, ptr %67, align 2, !tbaa !3
  %69 = and i16 %68, 31
  %70 = icmp eq i16 %69, 9
  %71 = zext i1 %70 to i8
  br label %72

72:                                               ; preds = %u_isdigit_77.exit, %u_isUAlphabetic_77.exit
  %73 = phi i8 [ 1, %u_isUAlphabetic_77.exit ], [ %71, %u_isdigit_77.exit ]
  ret i8 %73
}